target datalayout = "e-m:e-p270:32:32-p271:32:32-p272:64:64-i64:64-i128:128-f80:128-n8:16:32:64-S128"
target triple = "x86_64-unknown-linux-gnu"

%"class.llvh::SMRange" = type { %"class.llvh::SMLoc", %"class.llvh::SMLoc" }
%"class.llvh::SMLoc" = type { ptr }
%"class.llvh::ArrayRef" = type { ptr, i64 }
%"class.llvh::StringRef" = type { ptr, i64 }
%"class.hermes::parser::StoredComment" = type { i32, %"class.llvh::SMRange" }

@.str = private unnamed_addr constant [6 x i8] c"@flow\00", align 1

; Function Attrs: mustprogress nounwind uwtable
define linkonce_odr hidden noundef ptr @_ZNK4llvh5SMLoc10getPointerEv(ptr noundef nonnull align 8 dereferenceable(8) %this) #0 comdat align 2 {
entry:
  %this.addr = alloca ptr, align 8
  store ptr %this, ptr %this.addr, align 8
  %this1 = load ptr, ptr %this.addr, align 8
  %Ptr = getelementptr inbounds %"class.llvh::SMLoc", ptr %this1, i32 0, i32 0
  %0 = load ptr, ptr %Ptr, align 8
  ret ptr %0
}

; Function Attrs: mustprogress nounwind uwtable
define linkonce_odr hidden { ptr, i64 } @_ZNK6hermes6parser13StoredComment9getStringEv(ptr noundef nonnull align 8 dereferenceable(24) %this) #0 comdat align 2 {
entry:
  %this.addr.i = alloca ptr, align 8
  %data.addr.i = alloca ptr, align 8
  %length.addr.i = alloca i64, align 8
  %retval = alloca %"class.llvh::StringRef", align 8
  %this.addr = alloca ptr, align 8
  %start = alloca ptr, align 8
  %end = alloca ptr, align 8
  store ptr %this, ptr %this.addr, align 8
  %this1 = load ptr, ptr %this.addr, align 8
  %range_ = getelementptr inbounds %"class.hermes::parser::StoredComment", ptr %this1, i32 0, i32 1
  %Start = getelementptr inbounds %"class.llvh::SMRange", ptr %range_, i32 0, i32 0
  %call = call noundef ptr @_ZNK4llvh5SMLoc10getPointerEv(ptr noundef nonnull align 8 dereferenceable(8) %Start)
  %add.ptr = getelementptr inbounds i8, ptr %call, i64 2
  store ptr %add.ptr, ptr %start, align 8
  %kind_ = getelementptr inbounds %"class.hermes::parser::StoredComment", ptr %this1, i32 0, i32 0
  %0 = load i32, ptr %kind_, align 8
  %cmp = icmp eq i32 %0, 1
  br i1 %cmp, label %cond.true, label %cond.false

cond.true:                                        ; preds = %entry
  %range_2 = getelementptr inbounds %"class.hermes::parser::StoredComment", ptr %this1, i32 0, i32 1
  %End = getelementptr inbounds %"class.llvh::SMRange", ptr %range_2, i32 0, i32 1
  %call3 = call noundef ptr @_ZNK4llvh5SMLoc10getPointerEv(ptr noundef nonnull align 8 dereferenceable(8) %End)
  %add.ptr4 = getelementptr inbounds i8, ptr %call3, i64 -2
  br label %cond.end

cond.false:                                       ; preds = %entry
  %range_5 = getelementptr inbounds %"class.hermes::parser::StoredComment", ptr %this1, i32 0, i32 1
  %End6 = getelementptr inbounds %"class.llvh::SMRange", ptr %range_5, i32 0, i32 1
  %call7 = call noundef ptr @_ZNK4llvh5SMLoc10getPointerEv(ptr noundef nonnull align 8 dereferenceable(8) %End6)
  br label %cond.end

cond.end:                                         ; preds = %cond.false, %cond.true
  %cond = phi ptr [ %add.ptr4, %cond.true ], [ %call7, %cond.false ]
  store ptr %cond, ptr %end, align 8
  %1 = load ptr, ptr %start, align 8
  %2 = load ptr, ptr %end, align 8
  %3 = load ptr, ptr %start, align 8
  %sub.ptr.lhs.cast = ptrtoint ptr %2 to i64
  %sub.ptr.rhs.cast = ptrtoint ptr %3 to i64
  %sub.ptr.sub = sub i64 %sub.ptr.lhs.cast, %sub.ptr.rhs.cast
  store ptr %retval, ptr %this.addr.i, align 8
  store ptr %1, ptr %data.addr.i, align 8
  store i64 %sub.ptr.sub, ptr %length.addr.i, align 8
  %this1.i = load ptr, ptr %this.addr.i, align 8
  %4 = load ptr, ptr %data.addr.i, align 8
  store ptr %4, ptr %this1.i, align 8
  %Length.i = getelementptr inbounds %"class.llvh::StringRef", ptr %this1.i, i32 0, i32 1
  %5 = load i64, ptr %length.addr.i, align 8
  store i64 %5, ptr %Length.i, align 8
  %6 = load { ptr, i64 }, ptr %retval, align 8
  ret { ptr, i64 } %6
}

; Function Attrs: mustprogress nounwind uwtable
define linkonce_odr hidden noundef i32 @_ZNK6hermes6parser13StoredComment7getKindEv(ptr noundef nonnull align 8 dereferenceable(24) %this) #0 comdat align 2 {
entry:
  %this.addr = alloca ptr, align 8
  store ptr %this, ptr %this.addr, align 8
  %this1 = load ptr, ptr %this.addr, align 8
  %kind_ = getelementptr inbounds %"class.hermes::parser::StoredComment", ptr %this1, i32 0, i32 0
  %0 = load i32, ptr %kind_, align 8
  ret i32 %0
}

; Function Attrs: mustprogress nounwind uwtable
define linkonce_odr hidden noundef ptr @_ZNK4llvh8ArrayRefIN6hermes6parser13StoredCommentEE3endEv(ptr noundef nonnull align 8 dereferenceable(16) %this) #0 comdat align 2 {
entry:
  %this.addr = alloca ptr, align 8
  store ptr %this, ptr %this.addr, align 8
  %this1 = load ptr, ptr %this.addr, align 8
  %Data = getelementptr inbounds %"class.llvh::ArrayRef", ptr %this1, i32 0, i32 0
  %0 = load ptr, ptr %Data, align 8
  %Length = getelementptr inbounds %"class.llvh::ArrayRef", ptr %this1, i32 0, i32 1
  %1 = load i64, ptr %Length, align 8
  %add.ptr = getelementptr inbounds %"class.hermes::parser::StoredComment", ptr %0, i64 %1
  ret ptr %add.ptr
}

; Function Attrs: mustprogress nounwind uwtable
define linkonce_odr hidden noundef ptr @_ZNK4llvh8ArrayRefIN6hermes6parser13StoredCommentEE5beginEv(ptr noundef nonnull align 8 dereferenceable(16) %this) #0 comdat align 2 {
entry:
  %this.addr = alloca ptr, align 8
  store ptr %this, ptr %this.addr, align 8
  %this1 = load ptr, ptr %this.addr, align 8
  %Data = getelementptr inbounds %"class.llvh::ArrayRef", ptr %this1, i32 0, i32 0
  %0 = load ptr, ptr %Data, align 8
  ret ptr %0
}

; Function Attrs: mustprogress nounwind uwtable
define hidden noundef zeroext i1 @_ZN6hermes6parser13hasFlowPragmaEN4llvh8ArrayRefINS0_13StoredCommentEEE(ptr %comments.coerce0, i64 %comments.coerce1) #0 {
entry:
  %this.addr.i46 = alloca ptr, align 8
  %this.addr.i43 = alloca ptr, align 8
  %this.addr.i40 = alloca ptr, align 8
  %this.addr.i30 = alloca ptr, align 8
  %Str.addr.i31 = alloca ptr, align 8
  %this.addr.i = alloca ptr, align 8
  %Str.addr.i = alloca ptr, align 8
  %retval = alloca i1, align 1
  %comments = alloca %"class.llvh::ArrayRef", align 8
  %__range2 = alloca ptr, align 8
  %__begin2 = alloca ptr, align 8
  %__end2 = alloca ptr, align 8
  %comment = alloca ptr, align 8
  %value = alloca %"class.llvh::StringRef", align 8
  %offset = alloca i64, align 8
  %agg.tmp = alloca %"class.llvh::StringRef", align 8
  %ptr = alloca ptr, align 8
  %ch = alloca i8, align 1
  %agg.tmp28 = alloca %"class.llvh::StringRef", align 8
  %0 = getelementptr inbounds { ptr, i64 }, ptr %comments, i32 0, i32 0
  store ptr %comments.coerce0, ptr %0, align 8
  %1 = getelementptr inbounds { ptr, i64 }, ptr %comments, i32 0, i32 1
  store i64 %comments.coerce1, ptr %1, align 8
  store ptr %comments, ptr %__range2, align 8
  %2 = load ptr, ptr %__range2, align 8
  %call = call noundef ptr @_ZNK4llvh8ArrayRefIN6hermes6parser13StoredCommentEE5beginEv(ptr noundef nonnull align 8 dereferenceable(16) %2)
  store ptr %call, ptr %__begin2, align 8
  %3 = load ptr, ptr %__range2, align 8
  %call1 = call noundef ptr @_ZNK4llvh8ArrayRefIN6hermes6parser13StoredCommentEE3endEv(ptr noundef nonnull align 8 dereferenceable(16) %3)
  store ptr %call1, ptr %__end2, align 8
  br label %for.cond

for.cond:                                         ; preds = %for.inc, %entry
  %4 = load ptr, ptr %__begin2, align 8
  %5 = load ptr, ptr %__end2, align 8
  %cmp = icmp ne ptr %4, %5
  br i1 %cmp, label %for.body, label %for.end

for.body:                                         ; preds = %for.cond
  %6 = load ptr, ptr %__begin2, align 8
  store ptr %6, ptr %comment, align 8
  %7 = load ptr, ptr %comment, align 8
  %call2 = call noundef i32 @_ZNK6hermes6parser13StoredComment7getKindEv(ptr noundef nonnull align 8 dereferenceable(24) %7)
  %cmp3 = icmp eq i32 %call2, 2
  br i1 %cmp3, label %if.then, label %if.end

if.then:                                          ; preds = %for.body
  br label %for.inc

if.end:                                           ; preds = %for.body
  %8 = load ptr, ptr %comment, align 8
  %call4 = call { ptr, i64 } @_ZNK6hermes6parser13StoredComment9getStringEv(ptr noundef nonnull align 8 dereferenceable(24) %8)
  %9 = getelementptr inbounds { ptr, i64 }, ptr %value, i32 0, i32 0
  %10 = extractvalue { ptr, i64 } %call4, 0
  store ptr %10, ptr %9, align 8
  %11 = getelementptr inbounds { ptr, i64 }, ptr %value, i32 0, i32 1
  %12 = extractvalue { ptr, i64 } %call4, 1
  store i64 %12, ptr %11, align 8
  store ptr %agg.tmp, ptr %this.addr.i, align 8
  store ptr @.str, ptr %Str.addr.i, align 8
  %this1.i = load ptr, ptr %this.addr.i, align 8
  %13 = load ptr, ptr %Str.addr.i, align 8
  store ptr %13, ptr %this1.i, align 8
  %Length.i = getelementptr inbounds %"class.llvh::StringRef", ptr %this1.i, i32 0, i32 1
  %14 = load ptr, ptr %Str.addr.i, align 8
  %tobool.i = icmp ne ptr %14, null
  br i1 %tobool.i, label %cond.true.i, label %cond.false.i

cond.true.i:                                      ; preds = %if.end
  %15 = load ptr, ptr %Str.addr.i, align 8
  %call.i = call i64 @strlen(ptr noundef %15) #8
  br label %_ZN4llvh9StringRefC2EPKc.exit

cond.false.i:                                     ; preds = %if.end
  br label %_ZN4llvh9StringRefC2EPKc.exit

_ZN4llvh9StringRefC2EPKc.exit:                    ; preds = %cond.false.i, %cond.true.i
  %cond.i = phi i64 [ %call.i, %cond.true.i ], [ 0, %cond.false.i ]
  store i64 %cond.i, ptr %Length.i, align 8
  %16 = getelementptr inbounds { ptr, i64 }, ptr %agg.tmp, i32 0, i32 0
  %17 = load ptr, ptr %16, align 8
  %18 = getelementptr inbounds { ptr, i64 }, ptr %agg.tmp, i32 0, i32 1
  %19 = load i64, ptr %18, align 8
  %call5 = call noundef i64 @_ZNK4llvh9StringRef4findES0_m(ptr noundef nonnull align 8 dereferenceable(16) %value, ptr %17, i64 %19, i64 noundef 0)
  store i64 %call5, ptr %offset, align 8
  br label %while.cond

while.cond:                                       ; preds = %_ZN4llvh9StringRefC2EPKc.exit39, %_ZN4llvh9StringRefC2EPKc.exit
  %20 = load i64, ptr %offset, align 8
  store ptr %value, ptr %this.addr.i43, align 8
  %this1.i44 = load ptr, ptr %this.addr.i43, align 8
  %Length.i45 = getelementptr inbounds %"class.llvh::StringRef", ptr %this1.i44, i32 0, i32 1
  %21 = load i64, ptr %Length.i45, align 8
  %sub = sub i64 %21, 4
  %cmp7 = icmp ult i64 %20, %sub
  br i1 %cmp7, label %while.body, label %while.end

while.body:                                       ; preds = %while.cond
  store ptr %value, ptr %this.addr.i46, align 8
  %this1.i47 = load ptr, ptr %this.addr.i46, align 8
  %22 = load ptr, ptr %this1.i47, align 8
  %23 = load i64, ptr %offset, align 8
  %add.ptr = getelementptr inbounds i8, ptr %22, i64 %23
  store ptr %add.ptr, ptr %ptr, align 8
  %24 = load i64, ptr %offset, align 8
  store ptr %value, ptr %this.addr.i40, align 8
  %this1.i41 = load ptr, ptr %this.addr.i40, align 8
  %Length.i42 = getelementptr inbounds %"class.llvh::StringRef", ptr %this1.i41, i32 0, i32 1
  %25 = load i64, ptr %Length.i42, align 8
  %sub10 = sub i64 %25, 5
  %cmp11 = icmp eq i64 %24, %sub10
  br i1 %cmp11, label %if.then12, label %if.end13

if.then12:                                        ; preds = %while.body
  store i1 true, ptr %retval, align 1
  br label %return

if.end13:                                         ; preds = %while.body
  %26 = load ptr, ptr %ptr, align 8
  %arrayidx = getelementptr inbounds i8, ptr %26, i64 5
  %27 = load i8, ptr %arrayidx, align 1
  store i8 %27, ptr %ch, align 1
  %28 = load i8, ptr %ch, align 1
  %conv = sext i8 %28 to i32
  %or = or i32 %conv, 32
  %cmp14 = icmp sge i32 %or, 97
  br i1 %cmp14, label %land.lhs.true, label %lor.lhs.false

land.lhs.true:                                    ; preds = %if.end13
  %29 = load i8, ptr %ch, align 1
  %conv15 = sext i8 %29 to i32
  %or16 = or i32 %conv15, 32
  %cmp17 = icmp sle i32 %or16, 122
  br i1 %cmp17, label %if.end27, label %lor.lhs.false

lor.lhs.false:                                    ; preds = %land.lhs.true, %if.end13
  %30 = load i8, ptr %ch, align 1
  %conv18 = sext i8 %30 to i32
  %cmp19 = icmp sge i32 %conv18, 48
  br i1 %cmp19, label %land.lhs.true20, label %lor.lhs.false23

land.lhs.true20:                                  ; preds = %lor.lhs.false
  %31 = load i8, ptr %ch, align 1
  %conv21 = sext i8 %31 to i32
  %cmp22 = icmp sle i32 %conv21, 57
  br i1 %cmp22, label %if.end27, label %lor.lhs.false23

lor.lhs.false23:                                  ; preds = %land.lhs.true20, %lor.lhs.false
  %32 = load i8, ptr %ch, align 1
  %conv24 = sext i8 %32 to i32
  %cmp25 = icmp eq i32 %conv24, 95
  br i1 %cmp25, label %if.end27, label %if.then26

if.then26:                                        ; preds = %lor.lhs.false23
  store i1 true, ptr %retval, align 1
  br label %return

if.end27:                                         ; preds = %lor.lhs.false23, %land.lhs.true20, %land.lhs.true
  store ptr %agg.tmp28, ptr %this.addr.i30, align 8
  store ptr @.str, ptr %Str.addr.i31, align 8
  %this1.i32 = load ptr, ptr %this.addr.i30, align 8
  %33 = load ptr, ptr %Str.addr.i31, align 8
  store ptr %33, ptr %this1.i32, align 8
  %Length.i33 = getelementptr inbounds %"class.llvh::StringRef", ptr %this1.i32, i32 0, i32 1
  %34 = load ptr, ptr %Str.addr.i31, align 8
  %tobool.i34 = icmp ne ptr %34, null
  br i1 %tobool.i34, label %cond.true.i37, label %cond.false.i35

cond.true.i37:                                    ; preds = %if.end27
  %35 = load ptr, ptr %Str.addr.i31, align 8
  %call.i38 = call i64 @strlen(ptr noundef %35) #8
  br label %_ZN4llvh9StringRefC2EPKc.exit39

cond.false.i35:                                   ; preds = %if.end27
  br label %_ZN4llvh9StringRefC2EPKc.exit39

_ZN4llvh9StringRefC2EPKc.exit39:                  ; preds = %cond.false.i35, %cond.true.i37
  %cond.i36 = phi i64 [ %call.i38, %cond.true.i37 ], [ 0, %cond.false.i35 ]
  store i64 %cond.i36, ptr %Length.i33, align 8
  %36 = load i64, ptr %offset, align 8
  %add = add i64 %36, 1
  %37 = getelementptr inbounds { ptr, i64 }, ptr %agg.tmp28, i32 0, i32 0
  %38 = load ptr, ptr %37, align 8
  %39 = getelementptr inbounds { ptr, i64 }, ptr %agg.tmp28, i32 0, i32 1
  %40 = load i64, ptr %39, align 8
  %call29 = call noundef i64 @_ZNK4llvh9StringRef4findES0_m(ptr noundef nonnull align 8 dereferenceable(16) %value, ptr %38, i64 %40, i64 noundef %add)
  store i64 %call29, ptr %offset, align 8
  br label %while.cond, !llvm.loop !6

while.end:                                        ; preds = %while.cond
  br label %for.inc

for.inc:                                          ; preds = %while.end, %if.then
  %41 = load ptr, ptr %__begin2, align 8
  %incdec.ptr = getelementptr inbounds %"class.hermes::parser::StoredComment", ptr %41, i32 1
  store ptr %incdec.ptr, ptr %__begin2, align 8
  br label %for.cond

for.end:                                          ; preds = %for.cond
  store i1 false, ptr %retval, align 1
  br label %return

return:                                           ; preds = %for.end, %if.then26, %if.then12
  %42 = load i1, ptr %retval, align 1
  ret i1 %42
}