; Function Attrs: mustprogress nounwind uwtable
define hidden noundef zeroext i1 @_ZN6hermes6parser13hasFlowPragmaEN4llvh8ArrayRefINS0_13StoredCommentEEE(ptr readonly %comments.coerce0, i64 %comments.coerce1) local_unnamed_addr #0 {
entry:
  %value = alloca %"class.llvh::StringRef", align 8
  %add.ptr.i = getelementptr inbounds %"class.hermes::parser::StoredComment", ptr %comments.coerce0, i64 %comments.coerce1
  %cmp.not26.not = icmp eq i64 %comments.coerce1, 0
  br i1 %cmp.not26.not, label %return, label %for.body.lr.ph

for.body.lr.ph:                                   ; preds = %entry
  %0 = getelementptr inbounds nuw i8, ptr %value, i64 8
  br label %for.body

for.body:                                         ; preds = %for.body.lr.ph, %for.inc
  %__begin2.027 = phi ptr [ %comments.coerce0, %for.body.lr.ph ], [ %incdec.ptr, %for.inc ]
  %1 = load i32, ptr %__begin2.027, align 8
  %cmp3 = icmp eq i32 %1, 2
  br i1 %cmp3, label %for.inc, label %if.end

if.end:                                           ; preds = %for.body
  %range_.i = getelementptr inbounds nuw i8, ptr %__begin2.027, i64 8
  %2 = load ptr, ptr %range_.i, align 8
  %cmp.i = icmp eq i32 %1, 1
  %End.i = getelementptr inbounds nuw i8, ptr %__begin2.027, i64 16
  %3 = load ptr, ptr %End.i, align 8
  %cond.idx.i = select i1 %cmp.i, i64 -2, i64 0
  %cond.i = getelementptr inbounds i8, ptr %3, i64 %cond.idx.i
  %add.ptr.i18 = getelementptr inbounds nuw i8, ptr %2, i64 2
  %sub.ptr.lhs.cast.i = ptrtoint ptr %cond.i to i64
  %sub.ptr.rhs.cast.i = ptrtoint ptr %add.ptr.i18 to i64
  %sub.ptr.sub.i = sub i64 %sub.ptr.lhs.cast.i, %sub.ptr.rhs.cast.i
  store ptr %add.ptr.i18, ptr %value, align 8
  store i64 %sub.ptr.sub.i, ptr %0, align 8
  %call5 = call noundef i64 @_ZNK4llvh9StringRef4findES0_m(ptr noundef nonnull align 8 dereferenceable(16) %value, ptr nonnull @.str, i64 5, i64 noundef 0) #7
  %4 = load i64, ptr %0, align 8
  %sub23 = add i64 %4, -4
  %cmp724 = icmp ult i64 %call5, %sub23
  br i1 %cmp724, label %while.body, label %for.inc

while.body:                                       ; preds = %if.end, %_ZN4llvh9StringRefC2EPKc.exit39
  %5 = phi i64 [ %11, %_ZN4llvh9StringRefC2EPKc.exit39 ], [ %4, %if.end ]
  %offset.025 = phi i64 [ %call29, %_ZN4llvh9StringRefC2EPKc.exit39 ], [ %call5, %if.end ]
  %sub10 = add i64 %5, -5
  %cmp11 = icmp eq i64 %offset.025, %sub10
  br i1 %cmp11, label %return, label %if.end13

if.end13:                                         ; preds = %while.body
  %6 = load ptr, ptr %value, align 8
  %add.ptr = getelementptr inbounds i8, ptr %6, i64 %offset.025
  %arrayidx = getelementptr inbounds nuw i8, ptr %add.ptr, i64 5
  %7 = load i8, ptr %arrayidx, align 1
  %8 = or i8 %7, 32
  %9 = add i8 %8, -97
  %or.cond17 = icmp ult i8 %9, 26
  br i1 %or.cond17, label %_ZN4llvh9StringRefC2EPKc.exit39, label %lor.lhs.false

lor.lhs.false:                                    ; preds = %if.end13
  %10 = add i8 %7, -48
  %or.cond = icmp ult i8 %10, 10
  %cmp25 = icmp eq i8 %7, 95
  %or.cond1 = or i1 %cmp25, %or.cond
  br i1 %or.cond1, label %_ZN4llvh9StringRefC2EPKc.exit39, label %return

_ZN4llvh9StringRefC2EPKc.exit39:                  ; preds = %if.end13, %lor.lhs.false
  %add = add nuw i64 %offset.025, 1
  %call29 = call noundef i64 @_ZNK4llvh9StringRef4findES0_m(ptr noundef nonnull align 8 dereferenceable(16) %value, ptr nonnull @.str, i64 5, i64 noundef %add) #7
  %11 = load i64, ptr %0, align 8
  %sub = add i64 %11, -4
  %cmp7 = icmp ult i64 %call29, %sub
  br i1 %cmp7, label %while.body, label %for.inc, !llvm.loop !9

for.inc:                                          ; preds = %_ZN4llvh9StringRefC2EPKc.exit39, %if.end, %for.body
  %incdec.ptr = getelementptr inbounds nuw i8, ptr %__begin2.027, i64 24
  %cmp.not.not = icmp eq ptr %incdec.ptr, %add.ptr.i
  br i1 %cmp.not.not, label %return, label %for.body

return:                                           ; preds = %for.inc, %lor.lhs.false, %while.body, %entry
  %cmp.not22 = phi i1 [ false, %entry ], [ true, %while.body ], [ true, %lor.lhs.false ], [ false, %for.inc ]
  ret i1 %cmp.not22
}